Certificate:
    Data:
        Version: 3 (0x2)
        Serial Number: 1 (0x1)
    Signature Algorithm: sha1WithRSAEncryption
        Issuer: C=SM, ST=SSM, L=SSM, O=SSM23, OU=SSM, CN=Jeong/name=Il hwan/emailAddress=bonjhua@naver.com
        Validity
            Not Before: Aug 29 20:38:55 2013 GMT
            Not After : Aug 27 20:38:55 2023 GMT
        Subject: C=SM, ST=SSM, L=SSM, O=SSM23, OU=SSM, CN=Jeong/name=Il Hwan/emailAddress=bonjhua@naver.com
        Subject Public Key Info:
            Public Key Algorithm: rsaEncryption
                Public-Key: (1024 bit)
                Modulus:
                    00:bc:57:0e:9d:f7:78:82:c4:c4:b4:ca:dc:e5:b6:
                    3a:a3:2a:a9:b4:a1:3f:57:99:95:5c:2a:27:91:47:
                    f3:ae:1c:82:3e:bc:02:62:a7:37:49:49:ad:b8:c9:
                    82:06:46:4d:28:3f:30:36:10:70:e3:34:e4:0a:c1:
                    d5:d3:d5:ad:7e:4d:61:7e:36:81:68:c4:c5:ca:69:
                    c6:75:1a:7a:9d:2d:72:0f:72:44:18:a5:8f:42:1e:
                    7a:36:3e:98:04:43:ed:cc:a8:26:b3:0d:77:1a:7d:
                    29:5e:06:22:e8:59:f1:c9:e6:80:4e:fb:9f:25:f3:
                    7e:da:36:e3:2b:4c:52:c1:23
                Exponent: 65537 (0x10001)
        X509v3 extensions:
            X509v3 Basic Constraints: 
                CA:FALSE
            Netscape Cert Type: 
                SSL Server
            Netscape Comment: 
                Easy-RSA Generated Server Certificate
            X509v3 Subject Key Identifier: 
                4B:84:76:F3:82:85:63:62:8C:CD:85:08:B1:EF:08:BA:45:26:FD:F7
            X509v3 Authority Key Identifier: 
                keyid:86:F7:53:4E:06:A1:EE:FC:3F:5F:F8:C0:D6:88:12:00:39:64:90:F3
                DirName:/C=SM/ST=SSM/L=SSM/O=SSM23/OU=SSM/CN=Jeong/name=Il hwan/emailAddress=bonjhua@naver.com
                serial:C2:01:FC:E2:93:3A:20:D0

            X509v3 Extended Key Usage: 
                TLS Web Server Authentication
            X509v3 Key Usage: 
                Digital Signature, Key Encipherment
    Signature Algorithm: sha1WithRSAEncryption
         c6:c5:86:58:a6:54:f0:70:84:1c:43:95:65:f8:e4:96:04:e6:
         71:4c:c4:16:ac:3c:d8:52:5d:4e:65:10:39:90:26:5a:fa:91:
         2e:03:16:dd:50:5b:b7:7a:f4:02:1a:18:84:20:2c:f0:41:c5:
         14:a7:20:e7:39:94:43:55:59:23:44:97:41:55:8b:6d:41:eb:
         43:22:0e:e9:16:68:55:f7:4d:65:02:42:9f:12:d6:3f:38:f4:
         97:2c:25:9c:08:51:14:4a:e9:ed:31:79:14:ad:f3:9d:54:9b:
         07:9c:42:50:76:a8:39:37:44:44:1f:3b:56:4d:dd:92:e6:8a:
         7b:f9
-----BEGIN CERTIFICATE-----
MIID7DCCA1WgAwIBAgIBATANBgkqhkiG9w0BAQUFADCBizELMAkGA1UEBhMCU00x
DDAKBgNVBAgTA1NTTTEMMAoGA1UEBxMDU1NNMQ4wDAYDVQQKEwVTU00yMzEMMAoG
A1UECxMDU1NNMQ4wDAYDVQQDEwVKZW9uZzEQMA4GA1UEKRMHSWwgaHdhbjEgMB4G
CSqGSIb3DQEJARYRYm9uamh1YUBuYXZlci5jb20wHhcNMTMwODI5MjAzODU1WhcN
MjMwODI3MjAzODU1WjCBizELMAkGA1UEBhMCU00xDDAKBgNVBAgTA1NTTTEMMAoG
A1UEBxMDU1NNMQ4wDAYDVQQKEwVTU00yMzEMMAoGA1UECxMDU1NNMQ4wDAYDVQQD
EwVKZW9uZzEQMA4GA1UEKRMHSWwgSHdhbjEgMB4GCSqGSIb3DQEJARYRYm9uamh1
YUBuYXZlci5jb20wgZ8wDQYJKoZIhvcNAQEBBQADgY0AMIGJAoGBALxXDp33eILE
xLTK3OW2OqMqqbShP1eZlVwqJ5FH864cgj68AmKnN0lJrbjJggZGTSg/MDYQcOM0
5ArB1dPVrX5NYX42gWjExcppxnUaep0tcg9yRBilj0IeejY+mARD7cyoJrMNdxp9
KV4GIuhZ8cnmgE77nyXzfto24ytMUsEjAgMBAAGjggFcMIIBWDAJBgNVHRMEAjAA
MBEGCWCGSAGG+EIBAQQEAwIGQDA0BglghkgBhvhCAQ0EJxYlRWFzeS1SU0EgR2Vu
ZXJhdGVkIFNlcnZlciBDZXJ0aWZpY2F0ZTAdBgNVHQ4EFgQUS4R284KFY2KMzYUI
se8IukUm/fcwgcAGA1UdIwSBuDCBtYAUhvdTTgah7vw/X/jA1ogSADlkkPOhgZGk
gY4wgYsxCzAJBgNVBAYTAlNNMQwwCgYDVQQIEwNTU00xDDAKBgNVBAcTA1NTTTEO
MAwGA1UEChMFU1NNMjMxDDAKBgNVBAsTA1NTTTEOMAwGA1UEAxMFSmVvbmcxEDAO
BgNVBCkTB0lsIGh3YW4xIDAeBgkqhkiG9w0BCQEWEWJvbmpodWFAbmF2ZXIuY29t
ggkAwgH84pM6INAwEwYDVR0lBAwwCgYIKwYBBQUHAwEwCwYDVR0PBAQDAgWgMA0G
CSqGSIb3DQEBBQUAA4GBAMbFhlimVPBwhBxDlWX45JYE5nFMxBasPNhSXU5lEDmQ
Jlr6kS4DFt1QW7d69AIaGIQgLPBBxRSnIOc5lENVWSNEl0FVi21B60MiDukWaFX3
TWUCQp8S1j849JcsJZwIURRK6e0xeRSt851UmwecQlB2qDk3REQfO1ZN3ZLminv5
-----END CERTIFICATE-----
