Certificate:
    Data:
        Version: 3 (0x2)
        Serial Number: 2 (0x2)
    Signature Algorithm: sha1WithRSAEncryption
        Issuer: C=SW, ST=SgGardem, L=SM, O=SSM, OU=T, CN=SecretGarden/name=JeongIlHwan/emailAddress=bonjhua@naver.com
        Validity
            Not Before: Aug  2 02:00:47 2013 GMT
            Not After : Jul 31 02:00:47 2023 GMT
        Subject: C=KR, ST=SSM, L=SSM, O=SSM, OU=SSM, CN=SSM/name=JeongIlHwan/emailAddress=bonjhua@naver.com
        Subject Public Key Info:
            Public Key Algorithm: rsaEncryption
                Public-Key: (1024 bit)
                Modulus:
                    00:c5:0f:3d:8f:0d:79:7c:7a:3a:f9:dc:7e:a6:68:
                    f0:fb:c5:c4:7f:6f:0c:44:2f:cb:32:01:36:e9:d5:
                    9e:9c:80:59:81:04:56:c5:be:6b:14:32:ea:36:84:
                    3c:93:6f:ac:3d:b3:86:9a:f4:c7:3b:c5:24:c6:43:
                    41:31:2c:b2:ff:d4:00:8c:7a:01:2d:2a:a3:f6:61:
                    6b:a3:06:34:7c:cb:a1:a6:60:67:ac:8b:43:a0:9b:
                    47:33:55:ef:4d:2e:05:ec:51:85:58:0a:c2:c4:f3:
                    17:aa:35:00:f1:92:f5:f7:b6:e5:52:4b:4c:28:47:
                    77:fe:f7:41:1f:67:a9:20:ef
                Exponent: 65537 (0x10001)
        X509v3 extensions:
            X509v3 Basic Constraints: 
                CA:FALSE
            Netscape Comment: 
                Easy-RSA Generated Certificate
            X509v3 Subject Key Identifier: 
                EC:E4:1D:AE:57:99:F5:3F:E9:B6:E3:BF:E4:7A:E4:DA:BB:B2:84:3A
            X509v3 Authority Key Identifier: 
                keyid:20:F3:CB:D8:DD:DB:F2:07:03:42:58:8F:60:1A:DA:3B:A4:6E:37:2D
                DirName:/C=SW/ST=SgGardem/L=SM/O=SSM/OU=T/CN=SecretGarden/name=JeongIlHwan/emailAddress=bonjhua@naver.com
                serial:EB:A3:C7:36:DC:9C:4C:BB

            X509v3 Extended Key Usage: 
                TLS Web Client Authentication
            X509v3 Key Usage: 
                Digital Signature
    Signature Algorithm: sha1WithRSAEncryption
         47:80:92:e6:35:f6:1b:61:9a:4f:41:9f:e3:56:9c:0a:a9:4e:
         25:ff:ec:67:f4:c9:be:5c:2e:2f:d1:a2:5a:72:ed:c0:53:a6:
         3d:7c:75:83:83:9f:68:ed:17:e9:23:c7:0a:10:7a:3d:3f:cc:
         e8:ec:88:32:a3:96:38:75:fe:a5:04:0b:ce:06:d8:7d:c4:d4:
         db:fe:a0:80:c7:45:73:c4:63:7d:e1:a0:fe:51:3a:13:dc:cf:
         92:bb:24:a0:42:e1:e7:fd:b9:72:e6:ad:14:80:2d:0d:8a:e8:
         37:a5:cc:21:07:32:74:3f:a2:49:e8:08:b4:e4:42:59:07:31:
         2d:50
-----BEGIN CERTIFICATE-----
MIID6DCCA1GgAwIBAgIBAjANBgkqhkiG9w0BAQUFADCBljELMAkGA1UEBhMCU1cx
ETAPBgNVBAgTCFNnR2FyZGVtMQswCQYDVQQHEwJTTTEMMAoGA1UEChMDU1NNMQow
CAYDVQQLEwFUMRUwEwYDVQQDEwxTZWNyZXRHYXJkZW4xFDASBgNVBCkTC0plb25n
SWxId2FuMSAwHgYJKoZIhvcNAQkBFhFib25qaHVhQG5hdmVyLmNvbTAeFw0xMzA4
MDIwMjAwNDdaFw0yMzA3MzEwMjAwNDdaMIGLMQswCQYDVQQGEwJLUjEMMAoGA1UE
CBMDU1NNMQwwCgYDVQQHEwNTU00xDDAKBgNVBAoTA1NTTTEMMAoGA1UECxMDU1NN
MQwwCgYDVQQDEwNTU00xFDASBgNVBCkTC0plb25nSWxId2FuMSAwHgYJKoZIhvcN
AQkBFhFib25qaHVhQG5hdmVyLmNvbTCBnzANBgkqhkiG9w0BAQEFAAOBjQAwgYkC
gYEAxQ89jw15fHo6+dx+pmjw+8XEf28MRC/LMgE26dWenIBZgQRWxb5rFDLqNoQ8
k2+sPbOGmvTHO8UkxkNBMSyy/9QAjHoBLSqj9mFrowY0fMuhpmBnrItDoJtHM1Xv
TS4F7FGFWArCxPMXqjUA8ZL197blUktMKEd3/vdBH2epIO8CAwEAAaOCAU0wggFJ
MAkGA1UdEwQCMAAwLQYJYIZIAYb4QgENBCAWHkVhc3ktUlNBIEdlbmVyYXRlZCBD
ZXJ0aWZpY2F0ZTAdBgNVHQ4EFgQU7OQdrleZ9T/ptuO/5Hrk2ruyhDowgcsGA1Ud
IwSBwzCBwIAUIPPL2N3b8gcDQliPYBraO6RuNy2hgZykgZkwgZYxCzAJBgNVBAYT
AlNXMREwDwYDVQQIEwhTZ0dhcmRlbTELMAkGA1UEBxMCU00xDDAKBgNVBAoTA1NT
TTEKMAgGA1UECxMBVDEVMBMGA1UEAxMMU2VjcmV0R2FyZGVuMRQwEgYDVQQpEwtK
ZW9uZ0lsSHdhbjEgMB4GCSqGSIb3DQEJARYRYm9uamh1YUBuYXZlci5jb22CCQDr
o8c23JxMuzATBgNVHSUEDDAKBggrBgEFBQcDAjALBgNVHQ8EBAMCB4AwDQYJKoZI
hvcNAQEFBQADgYEAR4CS5jX2G2GaT0Gf41acCqlOJf/sZ/TJvlwuL9GiWnLtwFOm
PXx1g4OfaO0X6SPHChB6PT/M6OyIMqOWOHX+pQQLzgbYfcTU2/6ggMdFc8RjfeGg
/lE6E9zPkrskoELh5/25cuatFIAtDYroN6XMIQcydD+iSegItORCWQcxLVA=
-----END CERTIFICATE-----
