Certificate:
    Data:
        Version: 3 (0x2)
        Serial Number: 2 (0x2)
    Signature Algorithm: sha1WithRSAEncryption
        Issuer: C=SM, ST=SSM, L=SSM, O=SSM23, OU=SSM, CN=Jeong/name=Il hwan/emailAddress=bonjhua@naver.com
        Validity
            Not Before: Aug 29 20:39:23 2013 GMT
            Not After : Aug 27 20:39:23 2023 GMT
        Subject: C=SM, ST=SSM, L=SSM, O=SSM, OU=SSM, CN=Jeong/name=Il hwan/emailAddress=bonjhua@naver.com
        Subject Public Key Info:
            Public Key Algorithm: rsaEncryption
                Public-Key: (1024 bit)
                Modulus:
                    00:ae:97:33:fc:28:57:2c:5f:1f:cb:cf:45:c4:d5:
                    cf:67:8b:7a:2d:d1:aa:a9:e6:f8:77:db:43:11:22:
                    d3:b6:0d:d5:f0:7b:cb:b1:a4:31:19:21:14:c2:10:
                    29:c5:d1:14:57:fa:51:ea:55:c0:9f:4b:67:f8:95:
                    3d:c5:c1:a4:5b:ba:8d:44:a4:54:fd:45:19:95:1f:
                    87:da:c5:15:1b:52:fe:5f:74:27:15:20:bb:e9:6b:
                    1b:b5:62:99:d0:53:83:bf:05:8a:0a:56:ae:29:a1:
                    30:8c:66:a5:a2:0f:85:bf:ef:e7:34:12:97:5e:06:
                    db:cf:6d:a8:21:b7:03:21:c7
                Exponent: 65537 (0x10001)
        X509v3 extensions:
            X509v3 Basic Constraints: 
                CA:FALSE
            Netscape Comment: 
                Easy-RSA Generated Certificate
            X509v3 Subject Key Identifier: 
                3B:21:3F:E1:7E:CD:87:82:2A:D5:C0:44:9C:E6:24:22:C6:52:2D:E6
            X509v3 Authority Key Identifier: 
                keyid:86:F7:53:4E:06:A1:EE:FC:3F:5F:F8:C0:D6:88:12:00:39:64:90:F3
                DirName:/C=SM/ST=SSM/L=SSM/O=SSM23/OU=SSM/CN=Jeong/name=Il hwan/emailAddress=bonjhua@naver.com
                serial:C2:01:FC:E2:93:3A:20:D0

            X509v3 Extended Key Usage: 
                TLS Web Client Authentication
            X509v3 Key Usage: 
                Digital Signature
    Signature Algorithm: sha1WithRSAEncryption
         58:5c:07:fc:d2:5a:ac:d9:c8:7e:b2:7d:d8:95:9c:e5:b6:ac:
         85:03:aa:35:37:15:a4:2a:f7:10:4a:0c:41:c8:fe:59:be:22:
         85:85:35:13:85:a7:f4:af:1e:f8:17:ed:cb:9c:fe:d7:93:51:
         53:ba:4b:a5:b7:e9:01:96:d8:85:91:5d:8f:3b:f1:9f:56:b1:
         39:3f:ee:b5:26:55:4e:6c:c4:70:fd:0f:bb:85:84:24:2f:82:
         4f:90:e7:88:11:5d:90:c7:4c:77:f7:25:25:7c:22:68:93:16:
         75:2d:6b:83:b1:08:f1:06:a7:fc:c8:ab:96:ca:1c:58:89:b4:
         93:49
-----BEGIN CERTIFICATE-----
MIID0DCCAzmgAwIBAgIBAjANBgkqhkiG9w0BAQUFADCBizELMAkGA1UEBhMCU00x
DDAKBgNVBAgTA1NTTTEMMAoGA1UEBxMDU1NNMQ4wDAYDVQQKEwVTU00yMzEMMAoG
A1UECxMDU1NNMQ4wDAYDVQQDEwVKZW9uZzEQMA4GA1UEKRMHSWwgaHdhbjEgMB4G
CSqGSIb3DQEJARYRYm9uamh1YUBuYXZlci5jb20wHhcNMTMwODI5MjAzOTIzWhcN
MjMwODI3MjAzOTIzWjCBiTELMAkGA1UEBhMCU00xDDAKBgNVBAgTA1NTTTEMMAoG
A1UEBxMDU1NNMQwwCgYDVQQKEwNTU00xDDAKBgNVBAsTA1NTTTEOMAwGA1UEAxMF
SmVvbmcxEDAOBgNVBCkTB0lsIGh3YW4xIDAeBgkqhkiG9w0BCQEWEWJvbmpodWFA
bmF2ZXIuY29tMIGfMA0GCSqGSIb3DQEBAQUAA4GNADCBiQKBgQCulzP8KFcsXx/L
z0XE1c9ni3ot0aqp5vh320MRItO2DdXwe8uxpDEZIRTCECnF0RRX+lHqVcCfS2f4
lT3FwaRbuo1EpFT9RRmVH4faxRUbUv5fdCcVILvpaxu1YpnQU4O/BYoKVq4poTCM
ZqWiD4W/7+c0EpdeBtvPbaghtwMhxwIDAQABo4IBQjCCAT4wCQYDVR0TBAIwADAt
BglghkgBhvhCAQ0EIBYeRWFzeS1SU0EgR2VuZXJhdGVkIENlcnRpZmljYXRlMB0G
A1UdDgQWBBQ7IT/hfs2HgirVwESc5iQixlIt5jCBwAYDVR0jBIG4MIG1gBSG91NO
BqHu/D9f+MDWiBIAOWSQ86GBkaSBjjCBizELMAkGA1UEBhMCU00xDDAKBgNVBAgT
A1NTTTEMMAoGA1UEBxMDU1NNMQ4wDAYDVQQKEwVTU00yMzEMMAoGA1UECxMDU1NN
MQ4wDAYDVQQDEwVKZW9uZzEQMA4GA1UEKRMHSWwgaHdhbjEgMB4GCSqGSIb3DQEJ
ARYRYm9uamh1YUBuYXZlci5jb22CCQDCAfzikzog0DATBgNVHSUEDDAKBggrBgEF
BQcDAjALBgNVHQ8EBAMCB4AwDQYJKoZIhvcNAQEFBQADgYEAWFwH/NJarNnIfrJ9
2JWc5bashQOqNTcVpCr3EEoMQcj+Wb4ihYU1E4Wn9K8e+Bfty5z+15NRU7pLpbfp
AZbYhZFdjzvxn1axOT/utSZVTmzEcP0Pu4WEJC+CT5DniBFdkMdMd/clJXwiaJMW
dS1rg7EI8Qan/MirlsocWIm0k0k=
-----END CERTIFICATE-----
